; Function Attrs: nounwind uwtable
define ptr @initialize_Lean_Elab_MatchAltView(i8 noundef zeroext %0, ptr noundef readnone captures(none) %1) local_unnamed_addr #0 {
  %.b4 = load i1, ptr @_G_initialized, align 1
  br i1 %.b4, label %3, label %7

3:                                                ; preds = %2
  tail call void @lean_inc_heartbeat() #4
  %4 = tail call noalias ptr @mi_malloc_small(i64 noundef 24) #4
  %5 = icmp eq ptr %4, null
  br i1 %5, label %6, label %.sink.split

6:                                                ; preds = %3
  tail call void @lean_internal_panic_out_of_memory() #5
  unreachable

7:                                                ; preds = %2
  store i1 true, ptr @_G_initialized, align 1
  %8 = tail call ptr @initialize_Lean_Elab_Term(i8 noundef zeroext %0, ptr noundef nonnull inttoptr (i64 1 to ptr)) #4
  %9 = getelementptr i8, ptr %8, i64 4
  %.val = load i32, ptr %9, align 4
  %.mask.i = and i32 %.val, -16777216
  %10 = icmp eq i32 %.mask.i, 16777216
  br i1 %10, label %40, label %11

11:                                               ; preds = %7
  %12 = load i32, ptr %8, align 4, !tbaa !4
  %13 = icmp sgt i32 %12, 1
  br i1 %13, label %14, label %16, !prof !9

14:                                               ; preds = %11
  %15 = add nsw i32 %12, -1
  store i32 %15, ptr %8, align 4, !tbaa !4
  br label %lean_dec_ref.exit

16:                                               ; preds = %11
  %.not.i = icmp eq i32 %12, 0
  br i1 %.not.i, label %lean_dec_ref.exit, label %17

17:                                               ; preds = %16
  tail call void @lean_dec_ref_cold(ptr noundef nonnull %8) #4
  br label %lean_dec_ref.exit

lean_dec_ref.exit:                                ; preds = %14, %16, %17
  %18 = tail call ptr @lean_alloc_object(i64 noundef 24) #4
  store i32 1, ptr %18, align 4, !tbaa !4
  %19 = getelementptr inbounds nuw i8, ptr %18, i64 4
  %20 = load i32, ptr %19, align 4
  %21 = and i32 %20, 65535
  %22 = or disjoint i32 %21, -167772160
  store i32 %22, ptr %19, align 4
  %23 = getelementptr inbounds nuw i8, ptr %18, i64 8
  tail call void @llvm.memset.p0.i64(ptr noundef nonnull align 8 dereferenceable(16) %23, i8 0, i64 16, i1 false)
  store ptr %18, ptr @l_Lean_Elab_Term_instInhabitedMatchAltView___closed__1, align 8, !tbaa !10
  tail call void @lean_mark_persistent(ptr noundef nonnull %18) #4
  %24 = load ptr, ptr @l_Lean_Elab_Term_instInhabitedMatchAltView___closed__1, align 8, !tbaa !10
  tail call void @lean_inc_heartbeat() #4
  %25 = tail call noalias ptr @mi_malloc_small(i64 noundef 40) #4
  %26 = icmp eq ptr %25, null
  br i1 %26, label %27, label %_init_l_Lean_Elab_Term_instInhabitedMatchAltView___closed__2.exit

27:                                               ; preds = %lean_dec_ref.exit
  tail call void @lean_internal_panic_out_of_memory() #5
  unreachable

_init_l_Lean_Elab_Term_instInhabitedMatchAltView___closed__2.exit: ; preds = %lean_dec_ref.exit
  %28 = getelementptr inbounds nuw i8, ptr %25, i64 4
  store i32 1, ptr %25, align 4, !tbaa !4
  store i32 262184, ptr %28, align 4
  %29 = getelementptr inbounds nuw i8, ptr %25, i64 8
  store ptr inttoptr (i64 1 to ptr), ptr %29, align 8, !tbaa !10
  %30 = getelementptr inbounds nuw i8, ptr %25, i64 16
  store ptr %24, ptr %30, align 8, !tbaa !10
  %31 = getelementptr inbounds nuw i8, ptr %25, i64 24
  store ptr inttoptr (i64 1 to ptr), ptr %31, align 8, !tbaa !10
  %32 = getelementptr inbounds nuw i8, ptr %25, i64 32
  store ptr inttoptr (i64 1 to ptr), ptr %32, align 8, !tbaa !10
  store ptr %25, ptr @l_Lean_Elab_Term_instInhabitedMatchAltView___closed__2, align 8, !tbaa !10
  tail call void @lean_mark_persistent(ptr noundef nonnull %25) #4
  %33 = load ptr, ptr @l_Lean_Elab_Term_instInhabitedMatchAltView___closed__2, align 8, !tbaa !10
  store ptr %33, ptr @l_Lean_Elab_Term_instInhabitedMatchAltView, align 8, !tbaa !10
  tail call void @lean_mark_persistent(ptr noundef %33) #4
  tail call void @lean_inc_heartbeat() #4
  %34 = tail call noalias ptr @mi_malloc_small(i64 noundef 24) #4
  %35 = icmp eq ptr %34, null
  br i1 %35, label %36, label %.sink.split

36:                                               ; preds = %_init_l_Lean_Elab_Term_instInhabitedMatchAltView___closed__2.exit
  tail call void @lean_internal_panic_out_of_memory() #5
  unreachable

.sink.split:                                      ; preds = %_init_l_Lean_Elab_Term_instInhabitedMatchAltView___closed__2.exit, %3
  %.sink9 = phi ptr [ %4, %3 ], [ %34, %_init_l_Lean_Elab_Term_instInhabitedMatchAltView___closed__2.exit ]
  %37 = getelementptr inbounds nuw i8, ptr %.sink9, i64 4
  store i32 1, ptr %.sink9, align 4, !tbaa !4
  store i32 131096, ptr %37, align 4
  %38 = getelementptr inbounds nuw i8, ptr %.sink9, i64 8
  store ptr inttoptr (i64 1 to ptr), ptr %38, align 8, !tbaa !10
  %39 = getelementptr inbounds nuw i8, ptr %.sink9, i64 16
  store ptr inttoptr (i64 1 to ptr), ptr %39, align 8, !tbaa !10
  br label %40

40:                                               ; preds = %.sink.split, %7
  %.0 = phi ptr [ %8, %7 ], [ %.sink9, %.sink.split ]
  ret ptr %.0
}